; Function Attrs: mustprogress nofree norecurse nosync nounwind willreturn memory(read, inaccessiblemem: none) uwtable
define dso_local i32 @getMyShardSlotCount() local_unnamed_addr #0 {
  %1 = load ptr, ptr getelementptr inbounds nuw (i8, ptr @server, i64 7920), align 8, !tbaa !56
  %2 = load ptr, ptr %1, align 8, !tbaa !81
  %3 = getelementptr inbounds nuw i8, ptr %2, i64 88
  %4 = load i32, ptr %3, align 8, !tbaa !82
  %5 = and i32 %4, 2
  %.not = icmp eq i32 %5, 0
  br i1 %.not, label %.sink.split, label %6

6:                                                ; preds = %0
  %7 = getelementptr inbounds nuw i8, ptr %2, i64 2184
  %8 = load ptr, ptr %7, align 8, !tbaa !59
  %.not2 = icmp eq ptr %8, null
  br i1 %.not2, label %11, label %.sink.split

.sink.split:                                      ; preds = %6, %0
  %.sink3 = phi ptr [ %2, %0 ], [ %8, %6 ]
  %9 = getelementptr inbounds nuw i8, ptr %.sink3, i64 2164
  %10 = load i32, ptr %9, align 4, !tbaa !149
  br label %11

11:                                               ; preds = %.sink.split, %6
  %.0 = phi i32 [ 0, %6 ], [ %10, %.sink.split ]
  ret i32 %.0
}